target datalayout = "e-m:e-p270:32:32-p271:32:32-p272:64:64-i64:64-i128:128-f80:128-n8:16:32:64-S128"
target triple = "x86_64-pc-linux-gnu"

%struct.sentinelAddr = type { ptr, ptr, i32 }

; Function Attrs: nounwind uwtable
define dso_local ptr @dupSentinelAddr(ptr noundef %0) #0 {
  %2 = alloca ptr, align 8
  %3 = alloca ptr, align 8
  store ptr %0, ptr %2, align 8, !tbaa !94
  call void @llvm.lifetime.start.p0(i64 8, ptr %3) #16
  %4 = call noalias ptr @zmalloc(i64 noundef 24) #18
  store ptr %4, ptr %3, align 8, !tbaa !94
  %5 = load ptr, ptr %2, align 8, !tbaa !94
  %6 = getelementptr inbounds nuw %struct.sentinelAddr, ptr %5, i32 0, i32 0
  %7 = load ptr, ptr %6, align 8, !tbaa !95
  %8 = call ptr @sdsnew(ptr noundef %7)
  %9 = load ptr, ptr %3, align 8, !tbaa !94
  %10 = getelementptr inbounds nuw %struct.sentinelAddr, ptr %9, i32 0, i32 0
  store ptr %8, ptr %10, align 8, !tbaa !95
  %11 = load ptr, ptr %2, align 8, !tbaa !94
  %12 = getelementptr inbounds nuw %struct.sentinelAddr, ptr %11, i32 0, i32 1
  %13 = load ptr, ptr %12, align 8, !tbaa !97
  %14 = call ptr @sdsnew(ptr noundef %13)
  %15 = load ptr, ptr %3, align 8, !tbaa !94
  %16 = getelementptr inbounds nuw %struct.sentinelAddr, ptr %15, i32 0, i32 1
  store ptr %14, ptr %16, align 8, !tbaa !97
  %17 = load ptr, ptr %2, align 8, !tbaa !94
  %18 = getelementptr inbounds nuw %struct.sentinelAddr, ptr %17, i32 0, i32 2
  %19 = load i32, ptr %18, align 8, !tbaa !98
  %20 = load ptr, ptr %3, align 8, !tbaa !94
  %21 = getelementptr inbounds nuw %struct.sentinelAddr, ptr %20, i32 0, i32 2
  store i32 %19, ptr %21, align 8, !tbaa !98
  %22 = load ptr, ptr %3, align 8, !tbaa !94
  call void @llvm.lifetime.end.p0(i64 8, ptr %3) #16
  ret ptr %22
}