; Function Attrs: nounwind uwtable
define dso_local noalias noundef ptr @dupSentinelAddr(ptr noundef readonly captures(none) %0) local_unnamed_addr #0 {
  %2 = tail call noalias dereferenceable_or_null(24) ptr @zmalloc(i64 noundef 24) #33
  %3 = load ptr, ptr %0, align 8, !tbaa !30
  %4 = tail call ptr @sdsnew(ptr noundef %3) #30
  store ptr %4, ptr %2, align 8, !tbaa !30
  %5 = getelementptr inbounds nuw i8, ptr %0, i64 8
  %6 = load ptr, ptr %5, align 8, !tbaa !32
  %7 = tail call ptr @sdsnew(ptr noundef %6) #30
  %8 = getelementptr inbounds nuw i8, ptr %2, i64 8
  store ptr %7, ptr %8, align 8, !tbaa !32
  %9 = getelementptr inbounds nuw i8, ptr %0, i64 16
  %10 = load i32, ptr %9, align 8, !tbaa !86
  %11 = getelementptr inbounds nuw i8, ptr %2, i64 16
  store i32 %10, ptr %11, align 8, !tbaa !86
  ret ptr %2
}